target datalayout = "e-m:e-p270:32:32-p271:32:32-p272:64:64-i64:64-i128:128-f80:128-n8:16:32:64-S128"
target triple = "x86_64-unknown-linux-gnu"

%"struct.llvh::fltSemantics" = type { i16, i16, i32, i32 }
%"class.llvh::APInt" = type <{ %union.anon, i32, [4 x i8] }>
%union.anon = type { i64 }
%"class.llvh::APFloat" = type { [8 x i8], %"union.llvh::APFloat::Storage" }
%"union.llvh::APFloat::Storage" = type { %"class.llvh::detail::DoubleAPFloat", [8 x i8] }
%"class.llvh::detail::DoubleAPFloat" = type { ptr, %"class.std::unique_ptr" }
%"class.std::unique_ptr" = type { %"struct.std::__uniq_ptr_data" }
%"struct.std::__uniq_ptr_data" = type { %"class.std::__uniq_ptr_impl" }
%"class.std::__uniq_ptr_impl" = type { %"class.std::tuple" }
%"class.std::tuple" = type { %"struct.std::_Tuple_impl" }
%"struct.std::_Tuple_impl" = type { %"struct.std::_Head_base.3" }
%"struct.std::_Head_base.3" = type { ptr }

@_ZN4llvhL18semPPCDoubleDoubleE = internal constant %"struct.llvh::fltSemantics" { i16 -1, i16 0, i32 0, i32 0 }, align 4

; Function Attrs: mustprogress nounwind uwtable
define linkonce_odr hidden noundef zeroext i1 @_ZNK4llvh5APInt12isSingleWordEv(ptr noundef nonnull align 8 dereferenceable(12) %this) #1 comdat align 2 {
entry:
  %this.addr = alloca ptr, align 8
  store ptr %this, ptr %this.addr, align 8
  %this1 = load ptr, ptr %this.addr, align 8
  %BitWidth = getelementptr inbounds %"class.llvh::APInt", ptr %this1, i32 0, i32 1
  %0 = load i32, ptr %BitWidth, align 8
  %cmp = icmp ule i32 %0, 64
  ret i1 %cmp
}

; Function Attrs: mustprogress nounwind willreturn memory(none) uwtable
define hidden noundef nonnull align 4 dereferenceable(12) ptr @_ZN4llvh11APFloatBase15PPCDoubleDoubleEv() #0 align 2 {
entry:
  ret ptr @_ZN4llvhL18semPPCDoubleDoubleE
}

; Function Attrs: mustprogress nounwind uwtable
define linkonce_odr hidden noundef zeroext i1 @_ZNK4llvh5APInt12needsCleanupEv(ptr noundef nonnull align 8 dereferenceable(12) %this) #1 comdat align 2 {
entry:
  %this.addr = alloca ptr, align 8
  store ptr %this, ptr %this.addr, align 8
  %this1 = load ptr, ptr %this.addr, align 8
  %call = call noundef zeroext i1 @_ZNK4llvh5APInt12isSingleWordEv(ptr noundef nonnull align 8 dereferenceable(12) %this1)
  %lnot = xor i1 %call, true
  ret i1 %lnot
}

; Function Attrs: mustprogress nounwind uwtable
define linkonce_odr hidden void @_ZN4llvh22DefaultFoldingSetTraitINS_5APIntEE7ProfileERKS1_RNS_16FoldingSetNodeIDE(ptr noundef nonnull align 8 dereferenceable(12) %X, ptr noundef nonnull align 8 dereferenceable(144) %ID) #1 comdat align 2 {
entry:
  %X.addr = alloca ptr, align 8
  %ID.addr = alloca ptr, align 8
  store ptr %X, ptr %X.addr, align 8
  store ptr %ID, ptr %ID.addr, align 8
  %0 = load ptr, ptr %X.addr, align 8
  %1 = load ptr, ptr %ID.addr, align 8
  call void @_ZNK4llvh5APInt7ProfileERNS_16FoldingSetNodeIDE(ptr noundef nonnull align 8 dereferenceable(12) %0, ptr noundef nonnull align 8 dereferenceable(144) %1)
  ret void
}

; Function Attrs: mustprogress nounwind uwtable
define linkonce_odr hidden noundef zeroext i1 @_ZN4llvh7APFloat10usesLayoutINS_6detail13DoubleAPFloatEEEbRKNS_12fltSemanticsE(ptr noundef nonnull align 4 dereferenceable(12) %Semantics) #1 comdat align 2 {
entry:
  %Semantics.addr = alloca ptr, align 8
  store ptr %Semantics, ptr %Semantics.addr, align 8
  %0 = load ptr, ptr %Semantics.addr, align 8
  %call = call noundef nonnull align 4 dereferenceable(12) ptr @_ZN4llvh11APFloatBase15PPCDoubleDoubleEv() #16
  %cmp = icmp eq ptr %0, %call
  ret i1 %cmp
}

; Function Attrs: mustprogress nounwind uwtable
define linkonce_odr hidden noundef zeroext i1 @_ZN4llvh7APFloat10usesLayoutINS_6detail9IEEEFloatEEEbRKNS_12fltSemanticsE(ptr noundef nonnull align 4 dereferenceable(12) %Semantics) #1 comdat align 2 {
entry:
  %Semantics.addr = alloca ptr, align 8
  store ptr %Semantics, ptr %Semantics.addr, align 8
  %0 = load ptr, ptr %Semantics.addr, align 8
  %call = call noundef nonnull align 4 dereferenceable(12) ptr @_ZN4llvh11APFloatBase15PPCDoubleDoubleEv() #16
  %cmp = icmp ne ptr %0, %call
  ret i1 %cmp
}

; Function Attrs: mustprogress nounwind uwtable
define linkonce_odr hidden noundef nonnull align 4 dereferenceable(12) ptr @_ZNK4llvh7APFloat12getSemanticsEv(ptr noundef nonnull align 8 dereferenceable(32) %this) #1 comdat align 2 {
entry:
  %this.addr = alloca ptr, align 8
  store ptr %this, ptr %this.addr, align 8
  %this1 = load ptr, ptr %this.addr, align 8
  %U = getelementptr inbounds %"class.llvh::APFloat", ptr %this1, i32 0, i32 1
  %0 = load ptr, ptr %U, align 8
  ret ptr %0
}

; Function Attrs: mustprogress nounwind uwtable
define linkonce_odr hidden void @_ZN4llvh5APIntD2Ev(ptr noundef nonnull align 8 dereferenceable(12) %this) unnamed_addr #1 comdat align 2 {
entry:
  %this.addr = alloca ptr, align 8
  store ptr %this, ptr %this.addr, align 8
  %this1 = load ptr, ptr %this.addr, align 8
  %call = call noundef zeroext i1 @_ZNK4llvh5APInt12needsCleanupEv(ptr noundef nonnull align 8 dereferenceable(12) %this1)
  br i1 %call, label %if.then, label %if.end

if.then:                                          ; preds = %entry
  %U = getelementptr inbounds %"class.llvh::APInt", ptr %this1, i32 0, i32 0
  %0 = load ptr, ptr %U, align 8
  %isnull = icmp eq ptr %0, null
  br i1 %isnull, label %delete.end, label %delete.notnull

delete.notnull:                                   ; preds = %if.then
  call void @_ZdaPv(ptr noundef %0) #14
  br label %delete.end

delete.end:                                       ; preds = %delete.notnull, %if.then
  br label %if.end

if.end:                                           ; preds = %delete.end, %entry
  ret void
}

; Function Attrs: mustprogress nounwind uwtable
define linkonce_odr hidden void @_ZN4llvh16FoldingSetNodeID3AddINS_5APIntEEEvRKT_(ptr noundef nonnull align 8 dereferenceable(144) %this, ptr noundef nonnull align 8 dereferenceable(12) %x) #1 comdat align 2 {
entry:
  %this.addr = alloca ptr, align 8
  %x.addr = alloca ptr, align 8
  store ptr %this, ptr %this.addr, align 8
  store ptr %x, ptr %x.addr, align 8
  %this1 = load ptr, ptr %this.addr, align 8
  %0 = load ptr, ptr %x.addr, align 8
  call void @_ZN4llvh22DefaultFoldingSetTraitINS_5APIntEE7ProfileERKS1_RNS_16FoldingSetNodeIDE(ptr noundef nonnull align 8 dereferenceable(12) %0, ptr noundef nonnull align 8 dereferenceable(144) %this1)
  ret void
}

; Function Attrs: mustprogress nounwind uwtable
define linkonce_odr hidden void @_ZNK4llvh7APFloat14bitcastToAPIntEv(ptr noalias sret(%"class.llvh::APInt") align 8 %agg.result, ptr noundef nonnull align 8 dereferenceable(32) %this) #1 comdat align 2 {
entry:
  %result.ptr = alloca ptr, align 8
  %this.addr = alloca ptr, align 8
  store ptr %agg.result, ptr %result.ptr, align 8
  store ptr %this, ptr %this.addr, align 8
  %this1 = load ptr, ptr %this.addr, align 8
  br label %do.body

do.body:                                          ; preds = %entry
  %call = call noundef nonnull align 4 dereferenceable(12) ptr @_ZNK4llvh7APFloat12getSemanticsEv(ptr noundef nonnull align 8 dereferenceable(32) %this1)
  %call2 = call noundef zeroext i1 @_ZN4llvh7APFloat10usesLayoutINS_6detail9IEEEFloatEEEbRKNS_12fltSemanticsE(ptr noundef nonnull align 4 dereferenceable(12) %call)
  br i1 %call2, label %if.then, label %if.end

if.then:                                          ; preds = %do.body
  %U = getelementptr inbounds %"class.llvh::APFloat", ptr %this1, i32 0, i32 1
  call void @_ZNK4llvh6detail9IEEEFloat14bitcastToAPIntEv(ptr sret(%"class.llvh::APInt") align 8 %agg.result, ptr noundef nonnull align 8 dereferenceable(24) %U)
  br label %return

if.end:                                           ; preds = %do.body
  %call3 = call noundef nonnull align 4 dereferenceable(12) ptr @_ZNK4llvh7APFloat12getSemanticsEv(ptr noundef nonnull align 8 dereferenceable(32) %this1)
  %call4 = call noundef zeroext i1 @_ZN4llvh7APFloat10usesLayoutINS_6detail13DoubleAPFloatEEEbRKNS_12fltSemanticsE(ptr noundef nonnull align 4 dereferenceable(12) %call3)
  br i1 %call4, label %if.then5, label %if.end7

if.then5:                                         ; preds = %if.end
  %U6 = getelementptr inbounds %"class.llvh::APFloat", ptr %this1, i32 0, i32 1
  call void @_ZNK4llvh6detail13DoubleAPFloat14bitcastToAPIntEv(ptr sret(%"class.llvh::APInt") align 8 %agg.result, ptr noundef nonnull align 8 dereferenceable(16) %U6)
  br label %return

if.end7:                                          ; preds = %if.end
  unreachable

do.end:                                           ; No predecessors!
  call void @llvm.trap()
  unreachable

return:                                           ; preds = %if.then5, %if.then
  ret void
}

; Function Attrs: mustprogress nounwind uwtable
define hidden void @_ZNK4llvh7APFloat7ProfileERNS_16FoldingSetNodeIDE(ptr noundef nonnull align 8 dereferenceable(32) %this, ptr noundef nonnull align 8 dereferenceable(144) %NID) #1 align 2 {
entry:
  %this.addr = alloca ptr, align 8
  %NID.addr = alloca ptr, align 8
  %ref.tmp = alloca %"class.llvh::APInt", align 8
  store ptr %this, ptr %this.addr, align 8
  store ptr %NID, ptr %NID.addr, align 8
  %this1 = load ptr, ptr %this.addr, align 8
  %0 = load ptr, ptr %NID.addr, align 8
  call void @_ZNK4llvh7APFloat14bitcastToAPIntEv(ptr sret(%"class.llvh::APInt") align 8 %ref.tmp, ptr noundef nonnull align 8 dereferenceable(32) %this1)
  call void @_ZN4llvh16FoldingSetNodeID3AddINS_5APIntEEEvRKT_(ptr noundef nonnull align 8 dereferenceable(144) %0, ptr noundef nonnull align 8 dereferenceable(12) %ref.tmp)
  call void @_ZN4llvh5APIntD2Ev(ptr noundef nonnull align 8 dereferenceable(12) %ref.tmp) #10
  ret void
}