; Function Attrs: mustprogress nounwind uwtable
define hidden void @_ZNK4llvh7APFloat7ProfileERNS_16FoldingSetNodeIDE(ptr noundef nonnull align 8 dereferenceable(32) %this, ptr noundef nonnull align 8 dereferenceable(144) %NID) local_unnamed_addr #2 align 2 {
entry:
  %ref.tmp = alloca %"class.llvh::APInt", align 8
  %U.i.i = getelementptr inbounds nuw i8, ptr %this, i64 8
  %0 = load ptr, ptr %U.i.i, align 8, !noalias !139
  %cmp.i.not.i = icmp eq ptr %0, @_ZN4llvhL18semPPCDoubleDoubleE
  br i1 %cmp.i.not.i, label %if.end.i, label %if.then.i

if.then.i:                                        ; preds = %entry
  call void @_ZNK4llvh6detail9IEEEFloat14bitcastToAPIntEv(ptr nonnull sret(%"class.llvh::APInt") align 8 %ref.tmp, ptr noundef nonnull align 8 dereferenceable(24) %U.i.i)
  br label %_ZNK4llvh7APFloat14bitcastToAPIntEv.exit

if.end.i:                                         ; preds = %entry
  call void @_ZNK4llvh6detail13DoubleAPFloat14bitcastToAPIntEv(ptr nonnull sret(%"class.llvh::APInt") align 8 %ref.tmp, ptr noundef nonnull align 8 dereferenceable(16) %U.i.i)
  br label %_ZNK4llvh7APFloat14bitcastToAPIntEv.exit

_ZNK4llvh7APFloat14bitcastToAPIntEv.exit:         ; preds = %if.then.i, %if.end.i
  call void @_ZNK4llvh5APInt7ProfileERNS_16FoldingSetNodeIDE(ptr noundef nonnull align 8 dereferenceable(12) %ref.tmp, ptr noundef nonnull align 8 dereferenceable(144) %NID) #26
  %BitWidth.i.i.i = getelementptr inbounds nuw i8, ptr %ref.tmp, i64 8
  %1 = load i32, ptr %BitWidth.i.i.i, align 8
  %cmp.i.i.i = icmp ugt i32 %1, 64
  br i1 %cmp.i.i.i, label %if.then.i2, label %_ZN4llvh5APIntD2Ev.exit

if.then.i2:                                       ; preds = %_ZNK4llvh7APFloat14bitcastToAPIntEv.exit
  %2 = load ptr, ptr %ref.tmp, align 8
  %isnull.i = icmp eq ptr %2, null
  br i1 %isnull.i, label %_ZN4llvh5APIntD2Ev.exit, label %delete.notnull.i

delete.notnull.i:                                 ; preds = %if.then.i2
  call void @_ZdaPv(ptr noundef nonnull %2) #25
  br label %_ZN4llvh5APIntD2Ev.exit

_ZN4llvh5APIntD2Ev.exit:                          ; preds = %_ZNK4llvh7APFloat14bitcastToAPIntEv.exit, %if.then.i2, %delete.notnull.i
  ret void
}